
test_add.elf:     formato del fichero elf32-littleriscv


Desensamblado de la sección .text.init:

00000000 <_start>:
   0:	00000513          	li	a0,0
   4:	0040006f          	j	8 <run_test>

00000008 <run_test>:
   8:	00200f13          	li	t5,2
   c:	00000593          	li	a1,0
  10:	00000613          	li	a2,0
  14:	00c58733          	add	a4,a1,a2
  18:	00000393          	li	t2,0
  1c:	4c771663          	bne	a4,t2,4e8 <fail>

00000020 <test_3>:
  20:	00300f13          	li	t5,3
  24:	00100593          	li	a1,1
  28:	00100613          	li	a2,1
  2c:	00c58733          	add	a4,a1,a2
  30:	00200393          	li	t2,2
  34:	4a771a63          	bne	a4,t2,4e8 <fail>

00000038 <test_4>:
  38:	00400f13          	li	t5,4
  3c:	00300593          	li	a1,3
  40:	00700613          	li	a2,7
  44:	00c58733          	add	a4,a1,a2
  48:	00a00393          	li	t2,10
  4c:	48771e63          	bne	a4,t2,4e8 <fail>

00000050 <test_5>:
  50:	00500f13          	li	t5,5
  54:	00000593          	li	a1,0
  58:	ffff8637          	lui	a2,0xffff8
  5c:	00c58733          	add	a4,a1,a2
  60:	ffff83b7          	lui	t2,0xffff8
  64:	48771263          	bne	a4,t2,4e8 <fail>

00000068 <test_6>:
  68:	00600f13          	li	t5,6
  6c:	800005b7          	lui	a1,0x80000
  70:	00000613          	li	a2,0
  74:	00c58733          	add	a4,a1,a2
  78:	800003b7          	lui	t2,0x80000
  7c:	46771663          	bne	a4,t2,4e8 <fail>

00000080 <test_7>:
  80:	00700f13          	li	t5,7
  84:	800005b7          	lui	a1,0x80000
  88:	ffff8637          	lui	a2,0xffff8
  8c:	00c58733          	add	a4,a1,a2
  90:	7fff83b7          	lui	t2,0x7fff8
  94:	44771a63          	bne	a4,t2,4e8 <fail>

00000098 <test_8>:
  98:	00800f13          	li	t5,8
  9c:	00000593          	li	a1,0
  a0:	00008637          	lui	a2,0x8
  a4:	fff60613          	addi	a2,a2,-1 # 7fff <_end+0x6fff>
  a8:	00c58733          	add	a4,a1,a2
  ac:	000083b7          	lui	t2,0x8
  b0:	fff38393          	addi	t2,t2,-1 # 7fff <_end+0x6fff>
  b4:	42771a63          	bne	a4,t2,4e8 <fail>

000000b8 <test_9>:
  b8:	00900f13          	li	t5,9
  bc:	800005b7          	lui	a1,0x80000
  c0:	fff58593          	addi	a1,a1,-1 # 7fffffff <_end+0x7fffefff>
  c4:	00000613          	li	a2,0
  c8:	00c58733          	add	a4,a1,a2
  cc:	800003b7          	lui	t2,0x80000
  d0:	fff38393          	addi	t2,t2,-1 # 7fffffff <_end+0x7fffefff>
  d4:	40771a63          	bne	a4,t2,4e8 <fail>

000000d8 <test_10>:
  d8:	00a00f13          	li	t5,10
  dc:	800005b7          	lui	a1,0x80000
  e0:	fff58593          	addi	a1,a1,-1 # 7fffffff <_end+0x7fffefff>
  e4:	00008637          	lui	a2,0x8
  e8:	fff60613          	addi	a2,a2,-1 # 7fff <_end+0x6fff>
  ec:	00c58733          	add	a4,a1,a2
  f0:	800083b7          	lui	t2,0x80008
  f4:	ffe38393          	addi	t2,t2,-2 # 80007ffe <_end+0x80006ffe>
  f8:	3e771863          	bne	a4,t2,4e8 <fail>

000000fc <test_11>:
  fc:	00b00f13          	li	t5,11
 100:	800005b7          	lui	a1,0x80000
 104:	00008637          	lui	a2,0x8
 108:	fff60613          	addi	a2,a2,-1 # 7fff <_end+0x6fff>
 10c:	00c58733          	add	a4,a1,a2
 110:	800083b7          	lui	t2,0x80008
 114:	fff38393          	addi	t2,t2,-1 # 80007fff <_end+0x80006fff>
 118:	3c771863          	bne	a4,t2,4e8 <fail>

0000011c <test_12>:
 11c:	00c00f13          	li	t5,12
 120:	800005b7          	lui	a1,0x80000
 124:	fff58593          	addi	a1,a1,-1 # 7fffffff <_end+0x7fffefff>
 128:	ffff8637          	lui	a2,0xffff8
 12c:	00c58733          	add	a4,a1,a2
 130:	7fff83b7          	lui	t2,0x7fff8
 134:	fff38393          	addi	t2,t2,-1 # 7fff7fff <_end+0x7fff6fff>
 138:	3a771863          	bne	a4,t2,4e8 <fail>

0000013c <test_13>:
 13c:	00d00f13          	li	t5,13
 140:	00000593          	li	a1,0
 144:	fff00613          	li	a2,-1
 148:	00c58733          	add	a4,a1,a2
 14c:	fff00393          	li	t2,-1
 150:	38771c63          	bne	a4,t2,4e8 <fail>

00000154 <test_14>:
 154:	00e00f13          	li	t5,14
 158:	fff00593          	li	a1,-1
 15c:	00100613          	li	a2,1
 160:	00c58733          	add	a4,a1,a2
 164:	00000393          	li	t2,0
 168:	38771063          	bne	a4,t2,4e8 <fail>

0000016c <test_15>:
 16c:	00f00f13          	li	t5,15
 170:	fff00593          	li	a1,-1
 174:	fff00613          	li	a2,-1
 178:	00c58733          	add	a4,a1,a2
 17c:	ffe00393          	li	t2,-2
 180:	36771463          	bne	a4,t2,4e8 <fail>

00000184 <test_16>:
 184:	01000f13          	li	t5,16
 188:	00100593          	li	a1,1
 18c:	80000637          	lui	a2,0x80000
 190:	fff60613          	addi	a2,a2,-1 # 7fffffff <_end+0x7fffefff>
 194:	00c58733          	add	a4,a1,a2
 198:	800003b7          	lui	t2,0x80000
 19c:	34771663          	bne	a4,t2,4e8 <fail>

000001a0 <test_17>:
 1a0:	01100f13          	li	t5,17
 1a4:	00d00593          	li	a1,13
 1a8:	00b00613          	li	a2,11
 1ac:	00c585b3          	add	a1,a1,a2
 1b0:	01800393          	li	t2,24
 1b4:	32759a63          	bne	a1,t2,4e8 <fail>

000001b8 <test_18>:
 1b8:	01200f13          	li	t5,18
 1bc:	00e00593          	li	a1,14
 1c0:	00b00613          	li	a2,11
 1c4:	00c58633          	add	a2,a1,a2
 1c8:	01900393          	li	t2,25
 1cc:	30761e63          	bne	a2,t2,4e8 <fail>

000001d0 <test_19>:
 1d0:	01300f13          	li	t5,19
 1d4:	00d00593          	li	a1,13
 1d8:	00b585b3          	add	a1,a1,a1
 1dc:	01a00393          	li	t2,26
 1e0:	30759463          	bne	a1,t2,4e8 <fail>

000001e4 <test_20>:
 1e4:	01400f13          	li	t5,20
 1e8:	00000213          	li	tp,0
 1ec:	00d00093          	li	ra,13
 1f0:	00b00113          	li	sp,11
 1f4:	00208733          	add	a4,ra,sp
 1f8:	00070313          	mv	t1,a4
 1fc:	00120213          	addi	tp,tp,1 # 1 <_start+0x1>
 200:	00200293          	li	t0,2
 204:	fe5214e3          	bne	tp,t0,1ec <test_20+0x8>
 208:	01800393          	li	t2,24
 20c:	2c731e63          	bne	t1,t2,4e8 <fail>

00000210 <test_21>:
 210:	01500f13          	li	t5,21
 214:	00000213          	li	tp,0
 218:	00e00093          	li	ra,14
 21c:	00b00113          	li	sp,11
 220:	00208733          	add	a4,ra,sp
 224:	00000013          	nop
 228:	00070313          	mv	t1,a4
 22c:	00120213          	addi	tp,tp,1 # 1 <_start+0x1>
 230:	00200293          	li	t0,2
 234:	fe5212e3          	bne	tp,t0,218 <test_21+0x8>
 238:	01900393          	li	t2,25
 23c:	2a731663          	bne	t1,t2,4e8 <fail>

00000240 <test_22>:
 240:	01600f13          	li	t5,22
 244:	00000213          	li	tp,0
 248:	00f00093          	li	ra,15
 24c:	00b00113          	li	sp,11
 250:	00208733          	add	a4,ra,sp
 254:	00000013          	nop
 258:	00000013          	nop
 25c:	00070313          	mv	t1,a4
 260:	00120213          	addi	tp,tp,1 # 1 <_start+0x1>
 264:	00200293          	li	t0,2
 268:	fe5210e3          	bne	tp,t0,248 <test_22+0x8>
 26c:	01a00393          	li	t2,26
 270:	26731c63          	bne	t1,t2,4e8 <fail>

00000274 <test_23>:
 274:	01700f13          	li	t5,23
 278:	00000213          	li	tp,0
 27c:	00d00093          	li	ra,13
 280:	00b00113          	li	sp,11
 284:	00208733          	add	a4,ra,sp
 288:	00120213          	addi	tp,tp,1 # 1 <_start+0x1>
 28c:	00200293          	li	t0,2
 290:	fe5216e3          	bne	tp,t0,27c <test_23+0x8>
 294:	01800393          	li	t2,24
 298:	24771863          	bne	a4,t2,4e8 <fail>

0000029c <test_24>:
 29c:	01800f13          	li	t5,24
 2a0:	00000213          	li	tp,0
 2a4:	00e00093          	li	ra,14
 2a8:	00b00113          	li	sp,11
 2ac:	00000013          	nop
 2b0:	00208733          	add	a4,ra,sp
 2b4:	00120213          	addi	tp,tp,1 # 1 <_start+0x1>
 2b8:	00200293          	li	t0,2
 2bc:	fe5214e3          	bne	tp,t0,2a4 <test_24+0x8>
 2c0:	01900393          	li	t2,25
 2c4:	22771263          	bne	a4,t2,4e8 <fail>

000002c8 <test_25>:
 2c8:	01900f13          	li	t5,25
 2cc:	00000213          	li	tp,0
 2d0:	00f00093          	li	ra,15
 2d4:	00b00113          	li	sp,11
 2d8:	00000013          	nop
 2dc:	00000013          	nop
 2e0:	00208733          	add	a4,ra,sp
 2e4:	00120213          	addi	tp,tp,1 # 1 <_start+0x1>
 2e8:	00200293          	li	t0,2
 2ec:	fe5212e3          	bne	tp,t0,2d0 <test_25+0x8>
 2f0:	01a00393          	li	t2,26
 2f4:	1e771a63          	bne	a4,t2,4e8 <fail>

000002f8 <test_26>:
 2f8:	01a00f13          	li	t5,26
 2fc:	00000213          	li	tp,0
 300:	00d00093          	li	ra,13
 304:	00000013          	nop
 308:	00b00113          	li	sp,11
 30c:	00208733          	add	a4,ra,sp
 310:	00120213          	addi	tp,tp,1 # 1 <_start+0x1>
 314:	00200293          	li	t0,2
 318:	fe5214e3          	bne	tp,t0,300 <test_26+0x8>
 31c:	01800393          	li	t2,24
 320:	1c771463          	bne	a4,t2,4e8 <fail>

00000324 <test_27>:
 324:	01b00f13          	li	t5,27
 328:	00000213          	li	tp,0
 32c:	00e00093          	li	ra,14
 330:	00000013          	nop
 334:	00b00113          	li	sp,11
 338:	00000013          	nop
 33c:	00208733          	add	a4,ra,sp
 340:	00120213          	addi	tp,tp,1 # 1 <_start+0x1>
 344:	00200293          	li	t0,2
 348:	fe5212e3          	bne	tp,t0,32c <test_27+0x8>
 34c:	01900393          	li	t2,25
 350:	18771c63          	bne	a4,t2,4e8 <fail>

00000354 <test_28>:
 354:	01c00f13          	li	t5,28
 358:	00000213          	li	tp,0
 35c:	00f00093          	li	ra,15
 360:	00000013          	nop
 364:	00000013          	nop
 368:	00b00113          	li	sp,11
 36c:	00208733          	add	a4,ra,sp
 370:	00120213          	addi	tp,tp,1 # 1 <_start+0x1>
 374:	00200293          	li	t0,2
 378:	fe5212e3          	bne	tp,t0,35c <test_28+0x8>
 37c:	01a00393          	li	t2,26
 380:	16771463          	bne	a4,t2,4e8 <fail>

00000384 <test_29>:
 384:	01d00f13          	li	t5,29
 388:	00000213          	li	tp,0
 38c:	00b00113          	li	sp,11
 390:	00d00093          	li	ra,13
 394:	00208733          	add	a4,ra,sp
 398:	00120213          	addi	tp,tp,1 # 1 <_start+0x1>
 39c:	00200293          	li	t0,2
 3a0:	fe5216e3          	bne	tp,t0,38c <test_29+0x8>
 3a4:	01800393          	li	t2,24
 3a8:	14771063          	bne	a4,t2,4e8 <fail>

000003ac <test_30>:
 3ac:	01e00f13          	li	t5,30
 3b0:	00000213          	li	tp,0
 3b4:	00b00113          	li	sp,11
 3b8:	00e00093          	li	ra,14
 3bc:	00000013          	nop
 3c0:	00208733          	add	a4,ra,sp
 3c4:	00120213          	addi	tp,tp,1 # 1 <_start+0x1>
 3c8:	00200293          	li	t0,2
 3cc:	fe5214e3          	bne	tp,t0,3b4 <test_30+0x8>
 3d0:	01900393          	li	t2,25
 3d4:	10771a63          	bne	a4,t2,4e8 <fail>

000003d8 <test_31>:
 3d8:	01f00f13          	li	t5,31
 3dc:	00000213          	li	tp,0
 3e0:	00b00113          	li	sp,11
 3e4:	00f00093          	li	ra,15
 3e8:	00000013          	nop
 3ec:	00000013          	nop
 3f0:	00208733          	add	a4,ra,sp
 3f4:	00120213          	addi	tp,tp,1 # 1 <_start+0x1>
 3f8:	00200293          	li	t0,2
 3fc:	fe5212e3          	bne	tp,t0,3e0 <test_31+0x8>
 400:	01a00393          	li	t2,26
 404:	0e771263          	bne	a4,t2,4e8 <fail>

00000408 <test_32>:
 408:	02000f13          	li	t5,32
 40c:	00000213          	li	tp,0
 410:	00b00113          	li	sp,11
 414:	00000013          	nop
 418:	00d00093          	li	ra,13
 41c:	00208733          	add	a4,ra,sp
 420:	00120213          	addi	tp,tp,1 # 1 <_start+0x1>
 424:	00200293          	li	t0,2
 428:	fe5214e3          	bne	tp,t0,410 <test_32+0x8>
 42c:	01800393          	li	t2,24
 430:	0a771c63          	bne	a4,t2,4e8 <fail>

00000434 <test_33>:
 434:	02100f13          	li	t5,33
 438:	00000213          	li	tp,0
 43c:	00b00113          	li	sp,11
 440:	00000013          	nop
 444:	00e00093          	li	ra,14
 448:	00000013          	nop
 44c:	00208733          	add	a4,ra,sp
 450:	00120213          	addi	tp,tp,1 # 1 <_start+0x1>
 454:	00200293          	li	t0,2
 458:	fe5212e3          	bne	tp,t0,43c <test_33+0x8>
 45c:	01900393          	li	t2,25
 460:	08771463          	bne	a4,t2,4e8 <fail>

00000464 <test_34>:
 464:	02200f13          	li	t5,34
 468:	00000213          	li	tp,0
 46c:	00b00113          	li	sp,11
 470:	00000013          	nop
 474:	00000013          	nop
 478:	00f00093          	li	ra,15
 47c:	00208733          	add	a4,ra,sp
 480:	00120213          	addi	tp,tp,1 # 1 <_start+0x1>
 484:	00200293          	li	t0,2
 488:	fe5212e3          	bne	tp,t0,46c <test_34+0x8>
 48c:	01a00393          	li	t2,26
 490:	04771c63          	bne	a4,t2,4e8 <fail>

00000494 <test_35>:
 494:	02300f13          	li	t5,35
 498:	00f00093          	li	ra,15
 49c:	00100133          	add	sp,zero,ra
 4a0:	00f00393          	li	t2,15
 4a4:	04711263          	bne	sp,t2,4e8 <fail>

000004a8 <test_36>:
 4a8:	02400f13          	li	t5,36
 4ac:	02000093          	li	ra,32
 4b0:	00008133          	add	sp,ra,zero
 4b4:	02000393          	li	t2,32
 4b8:	02711863          	bne	sp,t2,4e8 <fail>

000004bc <test_37>:
 4bc:	02500f13          	li	t5,37
 4c0:	000000b3          	add	ra,zero,zero
 4c4:	00000393          	li	t2,0
 4c8:	02709063          	bne	ra,t2,4e8 <fail>

000004cc <test_38>:
 4cc:	02600f13          	li	t5,38
 4d0:	01000093          	li	ra,16
 4d4:	01e00113          	li	sp,30
 4d8:	00208033          	add	zero,ra,sp
 4dc:	00000393          	li	t2,0
 4e0:	00701463          	bne	zero,t2,4e8 <fail>
 4e4:	01e01663          	bne	zero,t5,4f0 <pass>

000004e8 <fail>:
 4e8:	000f0513          	mv	a0,t5

000004ec <fail_loop>:
 4ec:	0000006f          	j	4ec <fail_loop>

000004f0 <pass>:
 4f0:	00100513          	li	a0,1

000004f4 <pass_loop>:
 4f4:	0000006f          	j	4f4 <pass_loop>
